target datalayout = "e-m:e-p270:32:32-p271:32:32-p272:64:64-i64:64-i128:128-f80:128-n8:16:32:64-S128"
target triple = "x86_64-pc-linux-gnu"

%"class.icu_77::UnicodeString" = type { %"class.icu_77::Replaceable", %"union.icu_77::UnicodeString::StackBufferOrFields" }
%"class.icu_77::Replaceable" = type { %"class.icu_77::UObject" }
%"class.icu_77::UObject" = type { ptr }
%"union.icu_77::UnicodeString::StackBufferOrFields" = type { %struct.anon.0, [32 x i8] }
%struct.anon.0 = type { i16, i32, i32, ptr }
%"class.icu_77::NFRuleSet" = type <{ [8 x i8], %"class.icu_77::UnicodeString", %"class.icu_77::NFRuleList", [6 x ptr], ptr, %"class.icu_77::NFRuleList", i8, i8, i8, [5 x i8] }>
%"class.icu_77::NFRuleList" = type { ptr, i32, i32 }
%"class.icu_77::NFRule" = type { i64, i32, i16, i16, %"class.icu_77::UnicodeString", ptr, ptr, ptr, ptr }

; Function Attrs: mustprogress nounwind uwtable
define linkonce_odr noundef i64 @_ZNK6icu_776NFRule12getBaseValueEv(ptr noundef nonnull align 8 dereferenceable(112) %0) #6 comdat align 2 {
  %2 = alloca ptr, align 8
  store ptr %0, ptr %2, align 8, !tbaa !26
  %3 = load ptr, ptr %2, align 8
  %4 = getelementptr inbounds nuw %"class.icu_77::NFRule", ptr %3, i32 0, i32 0
  %5 = load i64, ptr %4, align 8, !tbaa !57
  ret i64 %5
}

; Function Attrs: mustprogress uwtable
define void @_ZN6icu_779NFRuleSet19setNonNumericalRuleEPNS_6NFRuleE(ptr noundef nonnull align 8 dereferenceable(163) %0, ptr noundef %1) #0 align 2 {
  %3 = alloca ptr, align 8
  %4 = alloca ptr, align 8
  store ptr %0, ptr %3, align 8, !tbaa !3
  store ptr %1, ptr %4, align 8, !tbaa !26
  %5 = load ptr, ptr %3, align 8
  %6 = load ptr, ptr %4, align 8, !tbaa !26
  %7 = call noundef i64 @_ZNK6icu_776NFRule12getBaseValueEv(ptr noundef nonnull align 8 dereferenceable(112) %6)
  switch i64 %7, label %45 [
    i64 -1, label %8
    i64 -2, label %18
    i64 -3, label %20
    i64 -4, label %22
    i64 -5, label %24
    i64 -6, label %34
    i64 0, label %44
    i64 -7, label %44
  ]

8:                                                ; preds = %2
  %9 = getelementptr inbounds nuw %"class.icu_77::NFRuleSet", ptr %5, i32 0, i32 3
  %10 = getelementptr inbounds nuw [6 x ptr], ptr %9, i64 0, i64 0
  %11 = load ptr, ptr %10, align 8, !tbaa !26
  %12 = icmp eq ptr %11, null
  br i1 %12, label %14, label %13

13:                                               ; preds = %8
  call void @_ZN6icu_776NFRuleD1Ev(ptr noundef nonnull align 8 dereferenceable(112) %11) #12
  call void @_ZN6icu_777UMemorydlEPv(ptr noundef %11) #12
  br label %14

14:                                               ; preds = %13, %8
  %15 = load ptr, ptr %4, align 8, !tbaa !26
  %16 = getelementptr inbounds nuw %"class.icu_77::NFRuleSet", ptr %5, i32 0, i32 3
  %17 = getelementptr inbounds nuw [6 x ptr], ptr %16, i64 0, i64 0
  store ptr %15, ptr %17, align 8, !tbaa !26
  br label %50

18:                                               ; preds = %2
  %19 = load ptr, ptr %4, align 8, !tbaa !26
  call void @_ZN6icu_779NFRuleSet19setBestFractionRuleEiPNS_6NFRuleEa(ptr noundef nonnull align 8 dereferenceable(163) %5, i32 noundef 1, ptr noundef %19, i8 noundef signext 1)
  br label %50

20:                                               ; preds = %2
  %21 = load ptr, ptr %4, align 8, !tbaa !26
  call void @_ZN6icu_779NFRuleSet19setBestFractionRuleEiPNS_6NFRuleEa(ptr noundef nonnull align 8 dereferenceable(163) %5, i32 noundef 2, ptr noundef %21, i8 noundef signext 1)
  br label %50

22:                                               ; preds = %2
  %23 = load ptr, ptr %4, align 8, !tbaa !26
  call void @_ZN6icu_779NFRuleSet19setBestFractionRuleEiPNS_6NFRuleEa(ptr noundef nonnull align 8 dereferenceable(163) %5, i32 noundef 3, ptr noundef %23, i8 noundef signext 1)
  br label %50

24:                                               ; preds = %2
  %25 = getelementptr inbounds nuw %"class.icu_77::NFRuleSet", ptr %5, i32 0, i32 3
  %26 = getelementptr inbounds nuw [6 x ptr], ptr %25, i64 0, i64 4
  %27 = load ptr, ptr %26, align 8, !tbaa !26
  %28 = icmp eq ptr %27, null
  br i1 %28, label %30, label %29

29:                                               ; preds = %24
  call void @_ZN6icu_776NFRuleD1Ev(ptr noundef nonnull align 8 dereferenceable(112) %27) #12
  call void @_ZN6icu_777UMemorydlEPv(ptr noundef %27) #12
  br label %30

30:                                               ; preds = %29, %24
  %31 = load ptr, ptr %4, align 8, !tbaa !26
  %32 = getelementptr inbounds nuw %"class.icu_77::NFRuleSet", ptr %5, i32 0, i32 3
  %33 = getelementptr inbounds nuw [6 x ptr], ptr %32, i64 0, i64 4
  store ptr %31, ptr %33, align 8, !tbaa !26
  br label %50

34:                                               ; preds = %2
  %35 = getelementptr inbounds nuw %"class.icu_77::NFRuleSet", ptr %5, i32 0, i32 3
  %36 = getelementptr inbounds nuw [6 x ptr], ptr %35, i64 0, i64 5
  %37 = load ptr, ptr %36, align 8, !tbaa !26
  %38 = icmp eq ptr %37, null
  br i1 %38, label %40, label %39

39:                                               ; preds = %34
  call void @_ZN6icu_776NFRuleD1Ev(ptr noundef nonnull align 8 dereferenceable(112) %37) #12
  call void @_ZN6icu_777UMemorydlEPv(ptr noundef %37) #12
  br label %40

40:                                               ; preds = %39, %34
  %41 = load ptr, ptr %4, align 8, !tbaa !26
  %42 = getelementptr inbounds nuw %"class.icu_77::NFRuleSet", ptr %5, i32 0, i32 3
  %43 = getelementptr inbounds nuw [6 x ptr], ptr %42, i64 0, i64 5
  store ptr %41, ptr %43, align 8, !tbaa !26
  br label %50

44:                                               ; preds = %2, %2
  br label %45

45:                                               ; preds = %2, %44
  %46 = load ptr, ptr %4, align 8, !tbaa !26
  %47 = icmp eq ptr %46, null
  br i1 %47, label %49, label %48

48:                                               ; preds = %45
  call void @_ZN6icu_776NFRuleD1Ev(ptr noundef nonnull align 8 dereferenceable(112) %46) #12
  call void @_ZN6icu_777UMemorydlEPv(ptr noundef %46) #12
  br label %49

49:                                               ; preds = %48, %45
  br label %50

50:                                               ; preds = %49, %40, %30, %22, %20, %18, %14
  ret void
}