; Function Attrs: mustprogress uwtable
define void @_ZN6icu_779NFRuleSet19setNonNumericalRuleEPNS_6NFRuleE(ptr noundef nonnull align 8 captures(none) dereferenceable(163) %0, ptr noundef %1) local_unnamed_addr #0 align 2 {
  %3 = load i64, ptr %1, align 8, !tbaa !41
  switch i64 %3, label %25 [
    i64 -1, label %4
    i64 -2, label %10
    i64 -3, label %11
    i64 -4, label %12
    i64 -5, label %13
    i64 -6, label %19
  ]

4:                                                ; preds = %2
  %5 = getelementptr inbounds nuw i8, ptr %0, i64 88
  %6 = load ptr, ptr %5, align 8, !tbaa !25
  %7 = icmp eq ptr %6, null
  br i1 %7, label %9, label %8

8:                                                ; preds = %4
  tail call void @_ZN6icu_776NFRuleD1Ev(ptr noundef nonnull align 8 dereferenceable(112) %6) #15
  tail call void @_ZN6icu_777UMemorydlEPv(ptr noundef nonnull %6) #15
  br label %9

9:                                                ; preds = %8, %4
  store ptr %1, ptr %5, align 8, !tbaa !25
  br label %26

10:                                               ; preds = %2
  tail call void @_ZN6icu_779NFRuleSet19setBestFractionRuleEiPNS_6NFRuleEa(ptr noundef nonnull align 8 dereferenceable(163) %0, i32 noundef 1, ptr noundef nonnull %1, i8 noundef signext 1)
  br label %26

11:                                               ; preds = %2
  tail call void @_ZN6icu_779NFRuleSet19setBestFractionRuleEiPNS_6NFRuleEa(ptr noundef nonnull align 8 dereferenceable(163) %0, i32 noundef 2, ptr noundef nonnull %1, i8 noundef signext 1)
  br label %26

12:                                               ; preds = %2
  tail call void @_ZN6icu_779NFRuleSet19setBestFractionRuleEiPNS_6NFRuleEa(ptr noundef nonnull align 8 dereferenceable(163) %0, i32 noundef 3, ptr noundef nonnull %1, i8 noundef signext 1)
  br label %26

13:                                               ; preds = %2
  %14 = getelementptr inbounds nuw i8, ptr %0, i64 120
  %15 = load ptr, ptr %14, align 8, !tbaa !25
  %16 = icmp eq ptr %15, null
  br i1 %16, label %18, label %17

17:                                               ; preds = %13
  tail call void @_ZN6icu_776NFRuleD1Ev(ptr noundef nonnull align 8 dereferenceable(112) %15) #15
  tail call void @_ZN6icu_777UMemorydlEPv(ptr noundef nonnull %15) #15
  br label %18

18:                                               ; preds = %17, %13
  store ptr %1, ptr %14, align 8, !tbaa !25
  br label %26

19:                                               ; preds = %2
  %20 = getelementptr inbounds nuw i8, ptr %0, i64 128
  %21 = load ptr, ptr %20, align 8, !tbaa !25
  %22 = icmp eq ptr %21, null
  br i1 %22, label %24, label %23

23:                                               ; preds = %19
  tail call void @_ZN6icu_776NFRuleD1Ev(ptr noundef nonnull align 8 dereferenceable(112) %21) #15
  tail call void @_ZN6icu_777UMemorydlEPv(ptr noundef nonnull %21) #15
  br label %24

24:                                               ; preds = %23, %19
  store ptr %1, ptr %20, align 8, !tbaa !25
  br label %26

25:                                               ; preds = %2
  tail call void @_ZN6icu_776NFRuleD1Ev(ptr noundef nonnull align 8 dereferenceable(112) %1) #15
  tail call void @_ZN6icu_777UMemorydlEPv(ptr noundef nonnull %1) #15
  br label %26

26:                                               ; preds = %25, %24, %18, %12, %11, %10, %9
  ret void
}